target datalayout = "e-m:e-p270:32:32-p271:32:32-p272:64:64-i64:64-i128:128-f80:128-n8:16:32:64-S128"
target triple = "x86_64-pc-linux-gnu"

%"class.icu_77::UObject" = type { ptr }
%"class.icu_77::UnicodeSet" = type <{ %"class.icu_77::UnicodeFilter", ptr, i32, i32, i8, [7 x i8], ptr, ptr, i32, [4 x i8], ptr, i32, [4 x i8], ptr, ptr, [25 x i32], [4 x i8] }>
%"class.icu_77::UnicodeFilter" = type { %"class.icu_77::UnicodeFunctor", %"class.icu_77::UnicodeMatcher" }
%"class.icu_77::UnicodeFunctor" = type { %"class.icu_77::UObject" }
%"class.icu_77::UnicodeMatcher" = type { ptr }

; Function Attrs: inlinehint mustprogress uwtable
define internal void @_ZN6icu_77L11addCategoryEPNS_10UnicodeSetEiR10UErrorCode(ptr noundef %0, i32 noundef %1, ptr noundef nonnull align 4 dereferenceable(4) %2) #3 personality ptr @__gxx_personality_v0 {
  %4 = alloca ptr, align 8
  %5 = alloca i32, align 4
  %6 = alloca ptr, align 8
  %7 = alloca %"class.icu_77::UnicodeSet", align 8
  %8 = alloca ptr, align 8
  %9 = alloca i32, align 4
  store ptr %0, ptr %4, align 8, !tbaa !96
  store i32 %1, ptr %5, align 4, !tbaa !14
  store ptr %2, ptr %6, align 8, !tbaa !22
  %10 = load ptr, ptr %4, align 8, !tbaa !96
  call void @llvm.lifetime.start.p0(i64 200, ptr %7) #13
  call void @_ZN6icu_7710UnicodeSetC1Ev(ptr noundef nonnull align 8 dereferenceable(200) %7)
  %11 = load i32, ptr %5, align 4, !tbaa !14
  %12 = load ptr, ptr %6, align 8, !tbaa !22
  %13 = invoke noundef nonnull align 8 dereferenceable(200) ptr @_ZN6icu_7710UnicodeSet21applyIntPropertyValueE9UPropertyiR10UErrorCode(ptr noundef nonnull align 8 dereferenceable(200) %7, i32 noundef 8192, i32 noundef %11, ptr noundef nonnull align 4 dereferenceable(4) %12)
          to label %14 unwind label %17

14:                                               ; preds = %3
  %15 = invoke noundef nonnull align 8 dereferenceable(200) ptr @_ZN6icu_7710UnicodeSet6addAllERKS0_(ptr noundef nonnull align 8 dereferenceable(200) %10, ptr noundef nonnull align 8 dereferenceable(200) %13)
          to label %16 unwind label %17

16:                                               ; preds = %14
  call void @_ZN6icu_7710UnicodeSetD1Ev(ptr noundef nonnull align 8 dereferenceable(200) %7) #13
  call void @llvm.lifetime.end.p0(i64 200, ptr %7) #13
  ret void

17:                                               ; preds = %14, %3
  %18 = landingpad { ptr, i32 }
          cleanup
  %19 = extractvalue { ptr, i32 } %18, 0
  store ptr %19, ptr %8, align 8
  %20 = extractvalue { ptr, i32 } %18, 1
  store i32 %20, ptr %9, align 4
  call void @_ZN6icu_7710UnicodeSetD1Ev(ptr noundef nonnull align 8 dereferenceable(200) %7) #13
  call void @llvm.lifetime.end.p0(i64 200, ptr %7) #13
  br label %21

21:                                               ; preds = %17
  %22 = load ptr, ptr %8, align 8
  %23 = load i32, ptr %9, align 4
  %24 = insertvalue { ptr, i32 } poison, ptr %22, 0
  %25 = insertvalue { ptr, i32 } %24, i32 %23, 1
  resume { ptr, i32 } %25
}

; Function Attrs: inlinehint mustprogress uwtable
define internal void @_ZN6icu_77L22addIdentifierIgnorableEPNS_10UnicodeSetER10UErrorCode(ptr noundef %0, ptr noundef nonnull align 4 dereferenceable(4) %1) #3 {
  %3 = alloca ptr, align 8
  %4 = alloca ptr, align 8
  store ptr %0, ptr %3, align 8, !tbaa !96
  store ptr %1, ptr %4, align 8, !tbaa !22
  %5 = load ptr, ptr %3, align 8, !tbaa !96
  %6 = call noundef nonnull align 8 dereferenceable(200) ptr @_ZN6icu_7710UnicodeSet3addEii(ptr noundef nonnull align 8 dereferenceable(200) %5, i32 noundef 0, i32 noundef 8)
  %7 = call noundef nonnull align 8 dereferenceable(200) ptr @_ZN6icu_7710UnicodeSet3addEii(ptr noundef nonnull align 8 dereferenceable(200) %6, i32 noundef 14, i32 noundef 27)
  %8 = call noundef nonnull align 8 dereferenceable(200) ptr @_ZN6icu_7710UnicodeSet3addEii(ptr noundef nonnull align 8 dereferenceable(200) %7, i32 noundef 127, i32 noundef 159)
  %9 = load ptr, ptr %3, align 8, !tbaa !96
  %10 = load ptr, ptr %4, align 8, !tbaa !22
  call void @_ZN6icu_77L11addCategoryEPNS_10UnicodeSetEiR10UErrorCode(ptr noundef %9, i32 noundef 65536, ptr noundef nonnull align 4 dereferenceable(4) %10)
  ret void
}