; Function Attrs: inlinehint mustprogress uwtable
define internal fastcc void @_ZN6icu_77L22addIdentifierIgnorableEPNS_10UnicodeSetER10UErrorCode(ptr noundef nonnull %0, ptr noundef nonnull align 4 dereferenceable(4) %1) unnamed_addr #2 personality ptr @__gxx_personality_v0 {
  %3 = alloca %"class.icu_77::UnicodeSet", align 8
  %4 = tail call noundef nonnull align 8 dereferenceable(200) ptr @_ZN6icu_7710UnicodeSet3addEii(ptr noundef nonnull align 8 dereferenceable(200) %0, i32 noundef 0, i32 noundef 8)
  %5 = tail call noundef nonnull align 8 dereferenceable(200) ptr @_ZN6icu_7710UnicodeSet3addEii(ptr noundef nonnull align 8 dereferenceable(200) %4, i32 noundef 14, i32 noundef 27)
  %6 = tail call noundef nonnull align 8 dereferenceable(200) ptr @_ZN6icu_7710UnicodeSet3addEii(ptr noundef nonnull align 8 dereferenceable(200) %5, i32 noundef 127, i32 noundef 159)
  call void @llvm.lifetime.start.p0(i64 200, ptr nonnull %3) #15
  call void @_ZN6icu_7710UnicodeSetC1Ev(ptr noundef nonnull align 8 dereferenceable(200) %3)
  %7 = invoke noundef nonnull align 8 dereferenceable(200) ptr @_ZN6icu_7710UnicodeSet21applyIntPropertyValueE9UPropertyiR10UErrorCode(ptr noundef nonnull align 8 dereferenceable(200) %3, i32 noundef 8192, i32 noundef 65536, ptr noundef nonnull align 4 dereferenceable(4) %1)
          to label %8 unwind label %10

8:                                                ; preds = %2
  %9 = invoke noundef nonnull align 8 dereferenceable(200) ptr @_ZN6icu_7710UnicodeSet6addAllERKS0_(ptr noundef nonnull align 8 dereferenceable(200) %0, ptr noundef nonnull align 8 dereferenceable(200) %7)
          to label %_ZN6icu_77L11addCategoryEPNS_10UnicodeSetEiR10UErrorCode.exit unwind label %10

10:                                               ; preds = %8, %2
  %11 = landingpad { ptr, i32 }
          cleanup
  call void @_ZN6icu_7710UnicodeSetD1Ev(ptr noundef nonnull align 8 dereferenceable(200) %3) #15
  call void @llvm.lifetime.end.p0(i64 200, ptr nonnull %3) #15
  resume { ptr, i32 } %11

_ZN6icu_77L11addCategoryEPNS_10UnicodeSetEiR10UErrorCode.exit: ; preds = %8
  call void @_ZN6icu_7710UnicodeSetD1Ev(ptr noundef nonnull align 8 dereferenceable(200) %3) #15
  call void @llvm.lifetime.end.p0(i64 200, ptr nonnull %3) #15
  ret void
}